target datalayout = "e-m:e-p270:32:32-p271:32:32-p272:64:64-i64:64-i128:128-f80:128-n8:16:32:64-S128"
target triple = "x86_64-pc-linux-gnu"

%struct.ossl_quic_tx_packetiser_st = type { %struct.ossl_quic_tx_packetiser_args_st, ptr, i64, ptr, ptr, %struct.quic_fifd_st, [3 x i64], %struct.OSSL_TIME, i64, i16, %struct.ossl_quic_frame_conn_close_st, i64, i64, [4 x %struct.txp_el], ptr, ptr, ptr, ptr, ptr }
%struct.ossl_quic_tx_packetiser_args_st = type { %struct.quic_conn_id_st, %struct.quic_conn_id_st, %union.bio_addr_st, i32, ptr, ptr, ptr, ptr, ptr, ptr, ptr, ptr, ptr, ptr, ptr, ptr, ptr, ptr, ptr, i32, [3 x ptr] }
%struct.quic_conn_id_st = type { i8, [20 x i8] }
%union.bio_addr_st = type { %struct.sockaddr_in6, [84 x i8] }
%struct.sockaddr_in6 = type { i16, i16, i32, %struct.in6_addr, i32 }
%struct.in6_addr = type { %union.anon }
%union.anon = type { [4 x i32] }
%struct.quic_fifd_st = type { ptr, ptr, ptr, ptr, ptr, ptr, ptr, ptr, ptr, ptr, ptr, ptr, ptr }
%struct.OSSL_TIME = type { i64 }
%struct.ossl_quic_frame_conn_close_st = type { i8, i64, i64, ptr, i64 }
%struct.txp_el = type { ptr, i64, ptr, i64 }

; Function Attrs: nounwind uwtable
define internal void @on_sstream_updated(i64 noundef %0, ptr noundef %1) #0 {
  %3 = alloca i64, align 8
  %4 = alloca ptr, align 8
  %5 = alloca ptr, align 8
  %6 = alloca ptr, align 8
  %7 = alloca i32, align 4
  store i64 %0, ptr %3, align 8, !tbaa !28
  store ptr %1, ptr %4, align 8, !tbaa !53
  call void @llvm.lifetime.start.p0(i64 8, ptr %5) #7
  %8 = load ptr, ptr %4, align 8, !tbaa !53
  store ptr %8, ptr %5, align 8, !tbaa !3
  call void @llvm.lifetime.start.p0(i64 8, ptr %6) #7
  %9 = load ptr, ptr %5, align 8, !tbaa !3
  %10 = getelementptr inbounds nuw %struct.ossl_quic_tx_packetiser_st, ptr %9, i32 0, i32 0
  %11 = getelementptr inbounds nuw %struct.ossl_quic_tx_packetiser_args_st, ptr %10, i32 0, i32 8
  %12 = load ptr, ptr %11, align 8, !tbaa !62
  %13 = load i64, ptr %3, align 8, !tbaa !28
  %14 = call ptr @ossl_quic_stream_map_get_by_id(ptr noundef %12, i64 noundef %13)
  store ptr %14, ptr %6, align 8, !tbaa !63
  %15 = load ptr, ptr %6, align 8, !tbaa !63
  %16 = icmp eq ptr %15, null
  br i1 %16, label %17, label %18

17:                                               ; preds = %2
  store i32 1, ptr %7, align 4
  br label %24

18:                                               ; preds = %2
  %19 = load ptr, ptr %5, align 8, !tbaa !3
  %20 = getelementptr inbounds nuw %struct.ossl_quic_tx_packetiser_st, ptr %19, i32 0, i32 0
  %21 = getelementptr inbounds nuw %struct.ossl_quic_tx_packetiser_args_st, ptr %20, i32 0, i32 8
  %22 = load ptr, ptr %21, align 8, !tbaa !62
  %23 = load ptr, ptr %6, align 8, !tbaa !63
  call void @ossl_quic_stream_map_update_state(ptr noundef %22, ptr noundef %23)
  store i32 0, ptr %7, align 4
  br label %24

24:                                               ; preds = %18, %17
  call void @llvm.lifetime.end.p0(i64 8, ptr %6) #7
  call void @llvm.lifetime.end.p0(i64 8, ptr %5) #7
  %25 = load i32, ptr %7, align 4
  switch i32 %25, label %27 [
    i32 0, label %26
    i32 1, label %26
  ]

26:                                               ; preds = %24, %24
  ret void

27:                                               ; preds = %24
  unreachable
}