; Function Attrs: nounwind uwtable
define internal void @on_sstream_updated(i64 noundef %0, ptr noundef readonly captures(none) %1) #3 {
  %3 = getelementptr inbounds nuw i8, ptr %1, i64 192
  %4 = load ptr, ptr %3, align 8, !tbaa !57
  %5 = tail call ptr @ossl_quic_stream_map_get_by_id(ptr noundef %4, i64 noundef %0) #10
  %6 = icmp eq ptr %5, null
  br i1 %6, label %9, label %7

7:                                                ; preds = %2
  %8 = load ptr, ptr %3, align 8, !tbaa !57
  tail call void @ossl_quic_stream_map_update_state(ptr noundef %8, ptr noundef nonnull %5) #10
  br label %9

9:                                                ; preds = %2, %7
  ret void
}